target datalayout = "e-m:e-p270:32:32-p271:32:32-p272:64:64-i64:64-i128:128-f80:128-n8:16:32:64-S128"
target triple = "x86_64-pc-linux-gnu"

; Function Attrs: null_pointer_is_valid sspstrong uwtable
define internal void @copy_attrib_item(ptr noundef %0, ptr noundef %1, ptr noundef %2) #3 {
  %4 = alloca ptr, align 8
  %5 = alloca ptr, align 8
  %6 = alloca ptr, align 8
  %7 = alloca ptr, align 8
  %8 = alloca ptr, align 8
  %9 = alloca ptr, align 8
  store ptr %0, ptr %4, align 8
  store ptr %1, ptr %5, align 8
  store ptr %2, ptr %6, align 8
  call void @llvm.lifetime.start.p0(i64 8, ptr %7) #10
  %10 = call ptr @wmem_epan_scope()
  %11 = load ptr, ptr %4, align 8
  %12 = call noalias ptr @wmem_strdup(ptr noundef %10, ptr noundef %11)
  store ptr %12, ptr %7, align 8
  call void @llvm.lifetime.start.p0(i64 8, ptr %8) #10
  %13 = call ptr @wmem_epan_scope()
  %14 = call noalias ptr @wmem_alloc(ptr noundef %13, i64 noundef 4) #12
  store ptr %14, ptr %8, align 8
  call void @llvm.lifetime.start.p0(i64 8, ptr %9) #10
  %15 = load ptr, ptr %6, align 8
  store ptr %15, ptr %9, align 8
  %16 = load ptr, ptr %8, align 8
  store i32 -1, ptr %16, align 4
  %17 = load ptr, ptr %9, align 8
  %18 = load ptr, ptr %7, align 8
  %19 = load ptr, ptr %8, align 8
  %20 = call ptr @wmem_map_insert(ptr noundef %17, ptr noundef %18, ptr noundef %19)
  call void @llvm.lifetime.end.p0(i64 8, ptr %9) #10
  call void @llvm.lifetime.end.p0(i64 8, ptr %8) #10
  call void @llvm.lifetime.end.p0(i64 8, ptr %7) #10
  ret void
}