; Function Attrs: null_pointer_is_valid sspstrong uwtable
define internal void @copy_attrib_item(ptr noundef %0, ptr readnone captures(none) %1, ptr noundef %2) #4 {
  %4 = tail call ptr @wmem_epan_scope()
  %5 = tail call noalias ptr @wmem_strdup(ptr noundef %4, ptr noundef %0)
  %6 = tail call ptr @wmem_epan_scope()
  %7 = tail call noalias dereferenceable_or_null(4) ptr @wmem_alloc(ptr noundef %6, i64 noundef 4) #13
  store i32 -1, ptr %7, align 4
  %8 = tail call ptr @wmem_map_insert(ptr noundef %2, ptr noundef %5, ptr noundef %7)
  ret void
}